; ModuleID = 'source-C-CXX/29/1544.cpp'
source_filename = "source-C-CXX/29/1544.cpp"
target datalayout = "e-m:e-p270:32:32-p271:32:32-p272:64:64-i64:64-f80:128-n8:16:32:64-S128"
target triple = "x86_64-pc-linux-gnu"

%"class.std::ios_base::Init" = type { i8 }
%"class.std::basic_istream" = type { i32 (...)**, i64, %"class.std::basic_ios" }
%"class.std::basic_ios" = type { %"class.std::ios_base", %"class.std::basic_ostream"*, i8, i8, %"class.std::basic_streambuf"*, %"class.std::ctype"*, %"class.std::num_put"*, %"class.std::num_get"* }
%"class.std::ios_base" = type { i32 (...)**, i64, i64, i32, i32, i32, %"struct.std::ios_base::_Callback_list"*, %"struct.std::ios_base::_Words", [8 x %"struct.std::ios_base::_Words"], i32, %"struct.std::ios_base::_Words"*, %"class.std::locale" }
%"struct.std::ios_base::_Callback_list" = type { %"struct.std::ios_base::_Callback_list"*, void (i32, %"class.std::ios_base"*, i32)*, i32, i32 }
%"struct.std::ios_base::_Words" = type { i8*, i64 }
%"class.std::locale" = type { %"class.std::locale::_Impl"* }
%"class.std::locale::_Impl" = type { i32, %"class.std::locale::facet"**, i64, %"class.std::locale::facet"**, i8** }
%"class.std::locale::facet" = type <{ i32 (...)**, i32, [4 x i8] }>
%"class.std::basic_ostream" = type { i32 (...)**, %"class.std::basic_ios" }
%"class.std::basic_streambuf" = type { i32 (...)**, i8*, i8*, i8*, i8*, i8*, i8*, %"class.std::locale" }
%"class.std::ctype" = type <{ %"class.std::locale::facet.base", [4 x i8], %struct.__locale_struct*, i8, [7 x i8], i32*, i32*, i16*, i8, [256 x i8], [256 x i8], i8, [6 x i8] }>
%"class.std::locale::facet.base" = type <{ i32 (...)**, i32 }>
%struct.__locale_struct = type { [13 x %struct.__locale_data*], i16*, i32*, i32*, [13 x i8*] }
%struct.__locale_data = type opaque
%"class.std::num_put" = type { %"class.std::locale::facet.base", [4 x i8] }
%"class.std::num_get" = type { %"class.std::locale::facet.base", [4 x i8] }

@_ZStL8__ioinit = internal global %"class.std::ios_base::Init" zeroinitializer, align 1
@__dso_handle = external hidden global i8
@_ZSt3cin = external global %"class.std::basic_istream", align 8
@_ZSt4cout = external global %"class.std::basic_ostream", align 8
@.str = private unnamed_addr constant [9 x i8] c"no count\00", align 1
@llvm.global_ctors = appending global [1 x { i32, void ()*, i8* }] [{ i32, void ()*, i8* } { i32 65535, void ()* @_GLOBAL__sub_I_1544.cpp, i8* null }]

declare void @_ZNSt8ios_base4InitC1Ev(%"class.std::ios_base::Init"* nonnull align 1 dereferenceable(1)) unnamed_addr #0

; Function Attrs: nounwind
declare void @_ZNSt8ios_base4InitD1Ev(%"class.std::ios_base::Init"* nonnull align 1 dereferenceable(1)) unnamed_addr #1

; Function Attrs: nofree nounwind
declare i32 @__cxa_atexit(void (i8*)*, i8*, i8*) local_unnamed_addr #2

; Function Attrs: mustprogress norecurse sspstrong uwtable
define dso_local i32 @main() local_unnamed_addr #3 {
  %1 = alloca i32, align 4
  %2 = bitcast i32* %1 to i8*
  call void @llvm.lifetime.start.p0i8(i64 4, i8* nonnull %2) #8
  %3 = call nonnull align 8 dereferenceable(16) %"class.std::basic_istream"* @_ZNSirsERi(%"class.std::basic_istream"* nonnull align 8 dereferenceable(16) @_ZSt3cin, i32* nonnull align 4 dereferenceable(4) %1)
  %4 = load i32, i32* %1, align 4, !tbaa !5
  %5 = icmp slt i32 %4, 100
  br i1 %5, label %6, label %84

6:                                                ; preds = %0
  %7 = icmp slt i32 %4, 1
  br i1 %7, label %53, label %8

8:                                                ; preds = %6
  %9 = icmp ult i32 %4, 4
  br i1 %9, label %34, label %10

10:                                               ; preds = %8
  %11 = and i32 %4, -4
  %12 = or i32 %11, 1
  br label %13

13:                                               ; preds = %13, %10
  %14 = phi i32 [ 0, %10 ], [ %28, %13 ]
  %15 = phi <4 x i32> [ zeroinitializer, %10 ], [ %27, %13 ]
  %16 = phi <4 x i32> [ <i32 1, i32 2, i32 3, i32 4>, %10 ], [ %29, %13 ]
  %17 = urem <4 x i32> %16, <i32 7, i32 7, i32 7, i32 7>
  %18 = icmp eq <4 x i32> %17, zeroinitializer
  %19 = urem <4 x i32> %16, <i32 10, i32 10, i32 10, i32 10>
  %20 = icmp eq <4 x i32> %19, <i32 7, i32 7, i32 7, i32 7>
  %21 = or <4 x i1> %18, %20
  %22 = add nsw <4 x i32> %16, <i32 -70, i32 -70, i32 -70, i32 -70>
  %23 = icmp ult <4 x i32> %22, <i32 10, i32 10, i32 10, i32 10>
  %24 = select <4 x i1> %21, <4 x i1> <i1 true, i1 true, i1 true, i1 true>, <4 x i1> %23
  %25 = mul nsw <4 x i32> %16, %16
  %26 = select <4 x i1> %24, <4 x i32> zeroinitializer, <4 x i32> %25
  %27 = add <4 x i32> %15, %26
  %28 = add nuw i32 %14, 4
  %29 = add <4 x i32> %16, <i32 4, i32 4, i32 4, i32 4>
  %30 = icmp eq i32 %28, %11
  br i1 %30, label %31, label %13, !llvm.loop !9

31:                                               ; preds = %13
  %32 = call i32 @llvm.vector.reduce.add.v4i32(<4 x i32> %27)
  %33 = icmp eq i32 %4, %11
  br i1 %33, label %53, label %34

34:                                               ; preds = %8, %31
  %35 = phi i32 [ 0, %8 ], [ %32, %31 ]
  %36 = phi i32 [ 1, %8 ], [ %12, %31 ]
  br label %37

37:                                               ; preds = %34, %37
  %38 = phi i32 [ %50, %37 ], [ %35, %34 ]
  %39 = phi i32 [ %51, %37 ], [ %36, %34 ]
  %40 = urem i32 %39, 7
  %41 = icmp eq i32 %40, 0
  %42 = urem i32 %39, 10
  %43 = icmp eq i32 %42, 7
  %44 = or i1 %41, %43
  %45 = add nsw i32 %39, -70
  %46 = icmp ult i32 %45, 10
  %47 = select i1 %44, i1 true, i1 %46
  %48 = mul nsw i32 %39, %39
  %49 = select i1 %47, i32 0, i32 %48
  %50 = add nuw nsw i32 %38, %49
  %51 = add nuw i32 %39, 1
  %52 = icmp eq i32 %39, %4
  br i1 %52, label %53, label %37, !llvm.loop !12

53:                                               ; preds = %37, %31, %6
  %54 = phi i32 [ 0, %6 ], [ %32, %31 ], [ %50, %37 ]
  %55 = call nonnull align 8 dereferenceable(8) %"class.std::basic_ostream"* @_ZNSolsEi(%"class.std::basic_ostream"* nonnull align 8 dereferenceable(8) @_ZSt4cout, i32 %54)
  %56 = bitcast %"class.std::basic_ostream"* %55 to i8**
  %57 = load i8*, i8** %56, align 8, !tbaa !14
  %58 = getelementptr i8, i8* %57, i64 -24
  %59 = bitcast i8* %58 to i64*
  %60 = load i64, i64* %59, align 8
  %61 = bitcast %"class.std::basic_ostream"* %55 to i8*
  %62 = add nsw i64 %60, 240
  %63 = getelementptr inbounds i8, i8* %61, i64 %62
  %64 = bitcast i8* %63 to %"class.std::ctype"**
  %65 = load %"class.std::ctype"*, %"class.std::ctype"** %64, align 8, !tbaa !16
  %66 = icmp eq %"class.std::ctype"* %65, null
  br i1 %66, label %67, label %68

67:                                               ; preds = %53
  call void @_ZSt16__throw_bad_castv() #9
  unreachable

68:                                               ; preds = %53
  %69 = getelementptr inbounds %"class.std::ctype", %"class.std::ctype"* %65, i64 0, i32 8
  %70 = load i8, i8* %69, align 8, !tbaa !20
  %71 = icmp eq i8 %70, 0
  br i1 %71, label %75, label %72

72:                                               ; preds = %68
  %73 = getelementptr inbounds %"class.std::ctype", %"class.std::ctype"* %65, i64 0, i32 9, i64 10
  %74 = load i8, i8* %73, align 1, !tbaa !22
  br label %81

75:                                               ; preds = %68
  call void @_ZNKSt5ctypeIcE13_M_widen_initEv(%"class.std::ctype"* nonnull align 8 dereferenceable(570) %65)
  %76 = bitcast %"class.std::ctype"* %65 to i8 (%"class.std::ctype"*, i8)***
  %77 = load i8 (%"class.std::ctype"*, i8)**, i8 (%"class.std::ctype"*, i8)*** %76, align 8, !tbaa !14
  %78 = getelementptr inbounds i8 (%"class.std::ctype"*, i8)*, i8 (%"class.std::ctype"*, i8)** %77, i64 6
  %79 = load i8 (%"class.std::ctype"*, i8)*, i8 (%"class.std::ctype"*, i8)** %78, align 8
  %80 = call signext i8 %79(%"class.std::ctype"* nonnull align 8 dereferenceable(570) %65, i8 signext 10)
  br label %81

81:                                               ; preds = %72, %75
  %82 = phi i8 [ %74, %72 ], [ %80, %75 ]
  %83 = call nonnull align 8 dereferenceable(8) %"class.std::basic_ostream"* @_ZNSo3putEc(%"class.std::basic_ostream"* nonnull align 8 dereferenceable(8) %55, i8 signext %82)
  br label %112

84:                                               ; preds = %0
  %85 = call nonnull align 8 dereferenceable(8) %"class.std::basic_ostream"* @_ZSt16__ostream_insertIcSt11char_traitsIcEERSt13basic_ostreamIT_T0_ES6_PKS3_l(%"class.std::basic_ostream"* nonnull align 8 dereferenceable(8) @_ZSt4cout, i8* nonnull getelementptr inbounds ([9 x i8], [9 x i8]* @.str, i64 0, i64 0), i64 8)
  %86 = load i8*, i8** bitcast (%"class.std::basic_ostream"* @_ZSt4cout to i8**), align 8, !tbaa !14
  %87 = getelementptr i8, i8* %86, i64 -24
  %88 = bitcast i8* %87 to i64*
  %89 = load i64, i64* %88, align 8
  %90 = add nsw i64 %89, 240
  %91 = getelementptr inbounds i8, i8* bitcast (%"class.std::basic_ostream"* @_ZSt4cout to i8*), i64 %90
  %92 = bitcast i8* %91 to %"class.std::ctype"**
  %93 = load %"class.std::ctype"*, %"class.std::ctype"** %92, align 8, !tbaa !16
  %94 = icmp eq %"class.std::ctype"* %93, null
  br i1 %94, label %95, label %96

95:                                               ; preds = %84
  call void @_ZSt16__throw_bad_castv() #9
  unreachable

96:                                               ; preds = %84
  %97 = getelementptr inbounds %"class.std::ctype", %"class.std::ctype"* %93, i64 0, i32 8
  %98 = load i8, i8* %97, align 8, !tbaa !20
  %99 = icmp eq i8 %98, 0
  br i1 %99, label %103, label %100

100:                                              ; preds = %96
  %101 = getelementptr inbounds %"class.std::ctype", %"class.std::ctype"* %93, i64 0, i32 9, i64 10
  %102 = load i8, i8* %101, align 1, !tbaa !22
  br label %109

103:                                              ; preds = %96
  call void @_ZNKSt5ctypeIcE13_M_widen_initEv(%"class.std::ctype"* nonnull align 8 dereferenceable(570) %93)
  %104 = bitcast %"class.std::ctype"* %93 to i8 (%"class.std::ctype"*, i8)***
  %105 = load i8 (%"class.std::ctype"*, i8)**, i8 (%"class.std::ctype"*, i8)*** %104, align 8, !tbaa !14
  %106 = getelementptr inbounds i8 (%"class.std::ctype"*, i8)*, i8 (%"class.std::ctype"*, i8)** %105, i64 6
  %107 = load i8 (%"class.std::ctype"*, i8)*, i8 (%"class.std::ctype"*, i8)** %106, align 8
  %108 = call signext i8 %107(%"class.std::ctype"* nonnull align 8 dereferenceable(570) %93, i8 signext 10)
  br label %109

109:                                              ; preds = %100, %103
  %110 = phi i8 [ %102, %100 ], [ %108, %103 ]
  %111 = call nonnull align 8 dereferenceable(8) %"class.std::basic_ostream"* @_ZNSo3putEc(%"class.std::basic_ostream"* nonnull align 8 dereferenceable(8) @_ZSt4cout, i8 signext %110)
  br label %112

112:                                              ; preds = %109, %81
  %113 = phi %"class.std::basic_ostream"* [ %111, %109 ], [ %83, %81 ]
  %114 = call nonnull align 8 dereferenceable(8) %"class.std::basic_ostream"* @_ZNSo5flushEv(%"class.std::basic_ostream"* nonnull align 8 dereferenceable(8) %113)
  call void @llvm.lifetime.end.p0i8(i64 4, i8* nonnull %2) #8
  ret i32 0
}

; Function Attrs: argmemonly mustprogress nofree nosync nounwind willreturn
declare void @llvm.lifetime.start.p0i8(i64 immarg, i8* nocapture) #4

declare nonnull align 8 dereferenceable(16) %"class.std::basic_istream"* @_ZNSirsERi(%"class.std::basic_istream"* nonnull align 8 dereferenceable(16), i32* nonnull align 4 dereferenceable(4)) local_unnamed_addr #0

declare nonnull align 8 dereferenceable(8) %"class.std::basic_ostream"* @_ZNSolsEi(%"class.std::basic_ostream"* nonnull align 8 dereferenceable(8), i32) local_unnamed_addr #0

; Function Attrs: argmemonly mustprogress nofree nosync nounwind willreturn
declare void @llvm.lifetime.end.p0i8(i64 immarg, i8* nocapture) #4

declare nonnull align 8 dereferenceable(8) %"class.std::basic_ostream"* @_ZNSo3putEc(%"class.std::basic_ostream"* nonnull align 8 dereferenceable(8), i8 signext) local_unnamed_addr #0

declare nonnull align 8 dereferenceable(8) %"class.std::basic_ostream"* @_ZNSo5flushEv(%"class.std::basic_ostream"* nonnull align 8 dereferenceable(8)) local_unnamed_addr #0

; Function Attrs: noreturn
declare void @_ZSt16__throw_bad_castv() local_unnamed_addr #5

declare void @_ZNKSt5ctypeIcE13_M_widen_initEv(%"class.std::ctype"* nonnull align 8 dereferenceable(570)) local_unnamed_addr #0

declare nonnull align 8 dereferenceable(8) %"class.std::basic_ostream"* @_ZSt16__ostream_insertIcSt11char_traitsIcEERSt13basic_ostreamIT_T0_ES6_PKS3_l(%"class.std::basic_ostream"* nonnull align 8 dereferenceable(8), i8*, i64) local_unnamed_addr #0

; Function Attrs: sspstrong uwtable
define internal void @_GLOBAL__sub_I_1544.cpp() #6 section ".text.startup" {
  tail call void @_ZNSt8ios_base4InitC1Ev(%"class.std::ios_base::Init"* nonnull align 1 dereferenceable(1) @_ZStL8__ioinit)
  %1 = tail call i32 @__cxa_atexit(void (i8*)* bitcast (void (%"class.std::ios_base::Init"*)* @_ZNSt8ios_base4InitD1Ev to void (i8*)*), i8* getelementptr inbounds (%"class.std::ios_base::Init", %"class.std::ios_base::Init"* @_ZStL8__ioinit, i64 0, i32 0), i8* nonnull @__dso_handle) #8
  ret void
}

; Function Attrs: nofree nosync nounwind readnone willreturn
declare i32 @llvm.vector.reduce.add.v4i32(<4 x i32>) #7


!llvm.module.flags = !{!0, !1, !2, !3}
!llvm.ident = !{!4}

!0 = !{i32 1, !"wchar_size", i32 4}
!1 = !{i32 7, !"PIC Level", i32 2}
!2 = !{i32 7, !"PIE Level", i32 2}
!3 = !{i32 7, !"uwtable", i32 1}
!4 = !{!"clang version 13.0.0"}
!5 = !{!6, !6, i64 0}
!6 = !{!"int", !7, i64 0}
!7 = !{!"omnipotent char", !8, i64 0}
!8 = !{!"Simple C++ TBAA"}
!9 = distinct !{!9, !10, !11}
!10 = !{!"llvm.loop.mustprogress"}
!11 = !{!"llvm.loop.isvectorized", i32 1}
!12 = distinct !{!12, !10, !13, !11}
!13 = !{!"llvm.loop.unroll.runtime.disable"}
!14 = !{!15, !15, i64 0}
!15 = !{!"vtable pointer", !8, i64 0}
!16 = !{!17, !18, i64 240}
!17 = !{!"_ZTSSt9basic_iosIcSt11char_traitsIcEE", !18, i64 216, !7, i64 224, !19, i64 225, !18, i64 232, !18, i64 240, !18, i64 248, !18, i64 256}
!18 = !{!"any pointer", !7, i64 0}
!19 = !{!"bool", !7, i64 0}
!20 = !{!21, !7, i64 56}
!21 = !{!"_ZTSSt5ctypeIcE", !18, i64 16, !19, i64 24, !18, i64 32, !18, i64 40, !18, i64 48, !7, i64 56, !7, i64 57, !7, i64 313, !7, i64 569}
!22 = !{!7, !7, i64 0}
